; Function Attrs: nounwind uwtable
define internal noundef i32 @cipher_hw_seed_cbc_cipher(ptr noundef %0, ptr noundef %1, ptr noundef %2, i64 noundef %3) #1 {
  %5 = getelementptr inbounds nuw i8, ptr %0, i64 192
  %6 = icmp ugt i64 %3, 1073741823
  br i1 %6, label %.lr.ph, label %._crit_edge

.lr.ph:                                           ; preds = %4
  %7 = getelementptr inbounds nuw i8, ptr %0, i64 32
  %8 = getelementptr inbounds nuw i8, ptr %0, i64 108
  br label %9

9:                                                ; preds = %.lr.ph, %9
  %.020 = phi ptr [ %1, %.lr.ph ], [ %16, %9 ]
  %.01619 = phi i64 [ %3, %.lr.ph ], [ %14, %9 ]
  %.01718 = phi ptr [ %2, %.lr.ph ], [ %15, %9 ]
  %10 = load i8, ptr %8, align 4
  %11 = lshr i8 %10, 1
  %12 = and i8 %11, 1
  %13 = zext nneg i8 %12 to i32
  tail call void @SEED_cbc_encrypt(ptr noundef %.01718, ptr noundef %.020, i64 noundef 1073741824, ptr noundef nonnull %5, ptr noundef nonnull %7, i32 noundef %13) #5
  %14 = add i64 %.01619, -1073741824
  %15 = getelementptr inbounds nuw i8, ptr %.01718, i64 1073741824
  %16 = getelementptr inbounds nuw i8, ptr %.020, i64 1073741824
  %17 = icmp ugt i64 %14, 1073741823
  br i1 %17, label %9, label %._crit_edge, !llvm.loop !3

._crit_edge:                                      ; preds = %9, %4
  %.017.lcssa = phi ptr [ %2, %4 ], [ %15, %9 ]
  %.016.lcssa = phi i64 [ %3, %4 ], [ %14, %9 ]
  %.0.lcssa = phi ptr [ %1, %4 ], [ %16, %9 ]
  %.not = icmp eq i64 %.016.lcssa, 0
  br i1 %.not, label %25, label %18

18:                                               ; preds = %._crit_edge
  %19 = getelementptr inbounds nuw i8, ptr %0, i64 32
  %20 = getelementptr inbounds nuw i8, ptr %0, i64 108
  %21 = load i8, ptr %20, align 4
  %22 = lshr i8 %21, 1
  %23 = and i8 %22, 1
  %24 = zext nneg i8 %23 to i32
  tail call void @SEED_cbc_encrypt(ptr noundef %.017.lcssa, ptr noundef %.0.lcssa, i64 noundef %.016.lcssa, ptr noundef nonnull %5, ptr noundef nonnull %19, i32 noundef %24) #5
  br label %25

25:                                               ; preds = %18, %._crit_edge
  ret i32 1
}